; Function Attrs: mustprogress nounwind willreturn uwtable
define void @SUNMatFreeEmpty(ptr noundef captures(address_is_null) %0) local_unnamed_addr #2 {
  %2 = icmp eq ptr %0, null
  br i1 %2, label %8, label %3

3:                                                ; preds = %1
  %4 = getelementptr inbounds nuw i8, ptr %0, i64 8
  %5 = load ptr, ptr %4, align 8, !tbaa !3
  %.not = icmp eq ptr %5, null
  br i1 %.not, label %7, label %6

6:                                                ; preds = %3
  tail call void @free(ptr noundef nonnull %5) #8
  br label %7

7:                                                ; preds = %6, %3
  tail call void @free(ptr noundef nonnull %0) #8
  br label %8

8:                                                ; preds = %1, %7
  ret void
}